target datalayout = "e-m:e-p270:32:32-p271:32:32-p272:64:64-i64:64-i128:128-f80:128-n8:16:32:64-S128"
target triple = "x86_64-pc-linux-gnu"

%"class.metaspace::FreeChunkList" = type <{ ptr, ptr, %"class.metaspace::AbstractCounter", [4 x i8] }>
%"class.metaspace::AbstractCounter" = type { i32 }
%"class.metaspace::Metachunk" = type { ptr, i64, i64, i8, i8, ptr, ptr, ptr, ptr, ptr }

@.str = private unnamed_addr constant [5 x i8] c" - <\00", align 1
@.str.4 = private unnamed_addr constant [2 x i8] c">\00", align 1
@.str.5 = private unnamed_addr constant [22 x i8] c" - total : %d chunks.\00", align 1
@.str.6 = private unnamed_addr constant [6 x i8] c"empty\00", align 1

; Function Attrs: mustprogress nounwind uwtable
define linkonce_odr hidden noundef ptr @_ZNK9metaspace9Metachunk4nextEv(ptr noundef nonnull align 8 dereferenceable(72) %0) #1 comdat align 2 {
  %2 = alloca ptr, align 8
  store ptr %0, ptr %2, align 8
  %3 = load ptr, ptr %2, align 8
  %4 = getelementptr inbounds %"class.metaspace::Metachunk", ptr %3, i32 0, i32 7
  %5 = load ptr, ptr %4, align 8
  ret ptr %5
}

; Function Attrs: mustprogress nounwind uwtable
define linkonce_odr hidden noundef i32 @_ZNK9metaspace15AbstractCounterIjE3getEv(ptr noundef nonnull align 4 dereferenceable(4) %0) #1 comdat align 2 {
  %2 = alloca ptr, align 8
  store ptr %0, ptr %2, align 8
  %3 = load ptr, ptr %2, align 8
  %4 = getelementptr inbounds %"class.metaspace::AbstractCounter", ptr %3, i32 0, i32 0
  %5 = load i32, ptr %4, align 4
  ret i32 %5
}

; Function Attrs: mustprogress nounwind uwtable
define hidden void @_ZNK9metaspace13FreeChunkList8print_onEP12outputStream(ptr noundef nonnull align 8 dereferenceable(20) %0, ptr noundef %1) #1 align 2 {
  %3 = alloca ptr, align 8
  %4 = alloca ptr, align 8
  %5 = alloca ptr, align 8
  store ptr %0, ptr %3, align 8
  store ptr %1, ptr %4, align 8
  %6 = load ptr, ptr %3, align 8
  %7 = getelementptr inbounds %"class.metaspace::FreeChunkList", ptr %6, i32 0, i32 2
  %8 = call noundef i32 @_ZNK9metaspace15AbstractCounterIjE3getEv(ptr noundef nonnull align 4 dereferenceable(4) %7)
  %9 = icmp ugt i32 %8, 0
  br i1 %9, label %10, label %28

10:                                               ; preds = %2
  %11 = getelementptr inbounds %"class.metaspace::FreeChunkList", ptr %6, i32 0, i32 0
  %12 = load ptr, ptr %11, align 8
  store ptr %12, ptr %5, align 8
  br label %13

13:                                               ; preds = %21, %10
  %14 = load ptr, ptr %5, align 8
  %15 = icmp ne ptr %14, null
  br i1 %15, label %16, label %24

16:                                               ; preds = %13
  %17 = load ptr, ptr %4, align 8
  call void (ptr, ptr, ...) @_ZN12outputStream5printEPKcz(ptr noundef nonnull align 8 dereferenceable(56) %17, ptr noundef @.str)
  %18 = load ptr, ptr %5, align 8
  %19 = load ptr, ptr %4, align 8
  call void @_ZNK9metaspace9Metachunk8print_onEP12outputStream(ptr noundef nonnull align 8 dereferenceable(72) %18, ptr noundef %19)
  %20 = load ptr, ptr %4, align 8
  call void (ptr, ptr, ...) @_ZN12outputStream5printEPKcz(ptr noundef nonnull align 8 dereferenceable(56) %20, ptr noundef @.str.4)
  br label %21

21:                                               ; preds = %16
  %22 = load ptr, ptr %5, align 8
  %23 = call noundef ptr @_ZNK9metaspace9Metachunk4nextEv(ptr noundef nonnull align 8 dereferenceable(72) %22)
  store ptr %23, ptr %5, align 8
  br label %13, !llvm.loop !8

24:                                               ; preds = %13
  %25 = load ptr, ptr %4, align 8
  %26 = getelementptr inbounds %"class.metaspace::FreeChunkList", ptr %6, i32 0, i32 2
  %27 = call noundef i32 @_ZNK9metaspace15AbstractCounterIjE3getEv(ptr noundef nonnull align 4 dereferenceable(4) %26)
  call void (ptr, ptr, ...) @_ZN12outputStream5printEPKcz(ptr noundef nonnull align 8 dereferenceable(56) %25, ptr noundef @.str.5, i32 noundef %27)
  br label %30

28:                                               ; preds = %2
  %29 = load ptr, ptr %4, align 8
  call void (ptr, ptr, ...) @_ZN12outputStream5printEPKcz(ptr noundef nonnull align 8 dereferenceable(56) %29, ptr noundef @.str.6)
  br label %30

30:                                               ; preds = %28, %24
  ret void
}