; Function Attrs: mustprogress nounwind uwtable
define hidden void @_ZNK9metaspace13FreeChunkList8print_onEP12outputStream(ptr nocapture noundef nonnull readonly align 8 dereferenceable(20) %0, ptr noundef %1) local_unnamed_addr #1 align 2 {
  %3 = getelementptr inbounds i8, ptr %0, i64 16
  %4 = load i32, ptr %3, align 8
  %.not = icmp eq i32 %4, 0
  br i1 %.not, label %7, label %.preheader

.preheader:                                       ; preds = %2
  %.010 = load ptr, ptr %0, align 8
  %.not911 = icmp eq ptr %.010, null
  br i1 %.not911, label %._crit_edge, label %.lr.ph

.lr.ph:                                           ; preds = %.preheader, %.lr.ph
  %.012 = phi ptr [ %.0, %.lr.ph ], [ %.010, %.preheader ]
  tail call void (ptr, ptr, ...) @_ZN12outputStream5printEPKcz(ptr noundef nonnull align 8 dereferenceable(56) %1, ptr noundef nonnull @.str) #6
  tail call void @_ZNK9metaspace9Metachunk8print_onEP12outputStream(ptr noundef nonnull align 8 dereferenceable(72) %.012, ptr noundef nonnull %1) #6
  tail call void (ptr, ptr, ...) @_ZN12outputStream5printEPKcz(ptr noundef nonnull align 8 dereferenceable(56) %1, ptr noundef nonnull @.str.4) #6
  %5 = getelementptr inbounds i8, ptr %.012, i64 48
  %.0 = load ptr, ptr %5, align 8
  %.not9 = icmp eq ptr %.0, null
  br i1 %.not9, label %._crit_edge.loopexit, label %.lr.ph, !llvm.loop !8

._crit_edge.loopexit:                             ; preds = %.lr.ph
  %.pre = load i32, ptr %3, align 8
  br label %._crit_edge

._crit_edge:                                      ; preds = %._crit_edge.loopexit, %.preheader
  %6 = phi i32 [ %.pre, %._crit_edge.loopexit ], [ %4, %.preheader ]
  tail call void (ptr, ptr, ...) @_ZN12outputStream5printEPKcz(ptr noundef nonnull align 8 dereferenceable(56) %1, ptr noundef nonnull @.str.5, i32 noundef %6) #6
  br label %8

7:                                                ; preds = %2
  tail call void (ptr, ptr, ...) @_ZN12outputStream5printEPKcz(ptr noundef nonnull align 8 dereferenceable(56) %1, ptr noundef nonnull @.str.6) #6
  br label %8

8:                                                ; preds = %7, %._crit_edge
  ret void
}